target datalayout = "e-m:e-p270:32:32-p271:32:32-p272:64:64-i64:64-i128:128-f80:128-n8:16:32:64-S128"
target triple = "x86_64-unknown-linux-gnu"

%struct.mz_zip_archive = type { i64, i64, i32, i32, i32, i32, i64, ptr, ptr, ptr, ptr, ptr, ptr, ptr, ptr, ptr }
%struct.mz_zip_writer_add_state = type { ptr, i64, i64 }

; Function Attrs: nounwind uwtable
define internal i32 @mz_zip_writer_add_put_buf_callback(ptr noundef %pBuf, i32 noundef %len, ptr noundef %pUser) #0 {
entry:
  %retval = alloca i32, align 4
  %pBuf.addr = alloca ptr, align 8
  %len.addr = alloca i32, align 4
  %pUser.addr = alloca ptr, align 8
  %pState = alloca ptr, align 8
  store ptr %pBuf, ptr %pBuf.addr, align 8
  store i32 %len, ptr %len.addr, align 4
  store ptr %pUser, ptr %pUser.addr, align 8
  %0 = load ptr, ptr %pUser.addr, align 8
  store ptr %0, ptr %pState, align 8
  %1 = load ptr, ptr %pState, align 8
  %m_pZip = getelementptr inbounds %struct.mz_zip_writer_add_state, ptr %1, i32 0, i32 0
  %2 = load ptr, ptr %m_pZip, align 8
  %m_pWrite = getelementptr inbounds %struct.mz_zip_archive, ptr %2, i32 0, i32 12
  %3 = load ptr, ptr %m_pWrite, align 8
  %4 = load ptr, ptr %pState, align 8
  %m_pZip1 = getelementptr inbounds %struct.mz_zip_writer_add_state, ptr %4, i32 0, i32 0
  %5 = load ptr, ptr %m_pZip1, align 8
  %m_pIO_opaque = getelementptr inbounds %struct.mz_zip_archive, ptr %5, i32 0, i32 14
  %6 = load ptr, ptr %m_pIO_opaque, align 8
  %7 = load ptr, ptr %pState, align 8
  %m_cur_archive_file_ofs = getelementptr inbounds %struct.mz_zip_writer_add_state, ptr %7, i32 0, i32 1
  %8 = load i64, ptr %m_cur_archive_file_ofs, align 8
  %9 = load ptr, ptr %pBuf.addr, align 8
  %10 = load i32, ptr %len.addr, align 4
  %conv = sext i32 %10 to i64
  %call = call i64 %3(ptr noundef %6, i64 noundef %8, ptr noundef %9, i64 noundef %conv)
  %conv2 = trunc i64 %call to i32
  %11 = load i32, ptr %len.addr, align 4
  %cmp = icmp ne i32 %conv2, %11
  br i1 %cmp, label %if.then, label %if.end

if.then:                                          ; preds = %entry
  store i32 0, ptr %retval, align 4
  br label %return

if.end:                                           ; preds = %entry
  %12 = load i32, ptr %len.addr, align 4
  %conv4 = sext i32 %12 to i64
  %13 = load ptr, ptr %pState, align 8
  %m_cur_archive_file_ofs5 = getelementptr inbounds %struct.mz_zip_writer_add_state, ptr %13, i32 0, i32 1
  %14 = load i64, ptr %m_cur_archive_file_ofs5, align 8
  %add = add i64 %14, %conv4
  store i64 %add, ptr %m_cur_archive_file_ofs5, align 8
  %15 = load i32, ptr %len.addr, align 4
  %conv6 = sext i32 %15 to i64
  %16 = load ptr, ptr %pState, align 8
  %m_comp_size = getelementptr inbounds %struct.mz_zip_writer_add_state, ptr %16, i32 0, i32 2
  %17 = load i64, ptr %m_comp_size, align 8
  %add7 = add i64 %17, %conv6
  store i64 %add7, ptr %m_comp_size, align 8
  store i32 1, ptr %retval, align 4
  br label %return

return:                                           ; preds = %if.end, %if.then
  %18 = load i32, ptr %retval, align 4
  ret i32 %18
}