; Function Attrs: nounwind uwtable
define internal range(i32 0, 2) i32 @mz_zip_writer_add_put_buf_callback(ptr noundef %pBuf, i32 noundef %len, ptr noundef captures(none) %pUser) #4 {
entry:
  %0 = load ptr, ptr %pUser, align 8
  %m_pWrite = getelementptr inbounds nuw i8, ptr %0, i64 80
  %1 = load ptr, ptr %m_pWrite, align 8
  %m_pIO_opaque = getelementptr inbounds nuw i8, ptr %0, i64 96
  %2 = load ptr, ptr %m_pIO_opaque, align 8
  %m_cur_archive_file_ofs = getelementptr inbounds nuw i8, ptr %pUser, i64 8
  %3 = load i64, ptr %m_cur_archive_file_ofs, align 8
  %conv = sext i32 %len to i64
  %call = tail call i64 %1(ptr noundef %2, i64 noundef %3, ptr noundef %pBuf, i64 noundef %conv) #30
  %conv2 = trunc i64 %call to i32
  %cmp.not = icmp eq i32 %len, %conv2
  br i1 %cmp.not, label %if.end, label %return

if.end:                                           ; preds = %entry
  %4 = load i64, ptr %m_cur_archive_file_ofs, align 8
  %add = add i64 %4, %conv
  store i64 %add, ptr %m_cur_archive_file_ofs, align 8
  %m_comp_size = getelementptr inbounds nuw i8, ptr %pUser, i64 16
  %5 = load i64, ptr %m_comp_size, align 8
  %add7 = add i64 %5, %conv
  store i64 %add7, ptr %m_comp_size, align 8
  br label %return

return:                                           ; preds = %entry, %if.end
  %retval.0 = phi i32 [ 1, %if.end ], [ 0, %entry ]
  ret i32 %retval.0
}